target datalayout = "e-m:e-p270:32:32-p271:32:32-p272:64:64-i64:64-i128:128-f80:128-n8:16:32:64-S128"
target triple = "x86_64-pc-linux-gnu"

%struct.ec_group_st = type { ptr, ptr, ptr, ptr, i32, i32, i32, i32, ptr, i64, ptr, [6 x i32], ptr, ptr, i32, ptr, ptr, ptr, ptr, i32, %union.anon, ptr, ptr }
%union.anon = type { ptr }
%struct.ec_point_st = type { ptr, i32, ptr, ptr, ptr, i32 }

; Function Attrs: nounwind uwtable
define i32 @ossl_ec_GFp_simple_invert(ptr noundef %0, ptr noundef %1, ptr noundef %2) #0 {
  %4 = alloca i32, align 4
  %5 = alloca ptr, align 8
  %6 = alloca ptr, align 8
  %7 = alloca ptr, align 8
  store ptr %0, ptr %5, align 8, !tbaa !3
  store ptr %1, ptr %6, align 8, !tbaa !30
  store ptr %2, ptr %7, align 8, !tbaa !22
  %8 = load ptr, ptr %5, align 8, !tbaa !3
  %9 = load ptr, ptr %6, align 8, !tbaa !30
  %10 = call i32 @EC_POINT_is_at_infinity(ptr noundef %8, ptr noundef %9)
  %11 = icmp ne i32 %10, 0
  br i1 %11, label %18, label %12

12:                                               ; preds = %3
  %13 = load ptr, ptr %6, align 8, !tbaa !30
  %14 = getelementptr inbounds nuw %struct.ec_point_st, ptr %13, i32 0, i32 3
  %15 = load ptr, ptr %14, align 8, !tbaa !33
  %16 = call i32 @BN_is_zero(ptr noundef %15)
  %17 = icmp ne i32 %16, 0
  br i1 %17, label %18, label %19

18:                                               ; preds = %12, %3
  store i32 1, ptr %4, align 4
  br label %30

19:                                               ; preds = %12
  %20 = load ptr, ptr %6, align 8, !tbaa !30
  %21 = getelementptr inbounds nuw %struct.ec_point_st, ptr %20, i32 0, i32 3
  %22 = load ptr, ptr %21, align 8, !tbaa !33
  %23 = load ptr, ptr %5, align 8, !tbaa !3
  %24 = getelementptr inbounds nuw %struct.ec_group_st, ptr %23, i32 0, i32 10
  %25 = load ptr, ptr %24, align 8, !tbaa !8
  %26 = load ptr, ptr %6, align 8, !tbaa !30
  %27 = getelementptr inbounds nuw %struct.ec_point_st, ptr %26, i32 0, i32 3
  %28 = load ptr, ptr %27, align 8, !tbaa !33
  %29 = call i32 @BN_usub(ptr noundef %22, ptr noundef %25, ptr noundef %28)
  store i32 %29, ptr %4, align 4
  br label %30

30:                                               ; preds = %19, %18
  %31 = load i32, ptr %4, align 4
  ret i32 %31
}