; Function Attrs: nounwind uwtable
define i32 @ossl_ec_GFp_simple_invert(ptr noundef %0, ptr noundef %1, ptr readnone captures(none) %2) #1 {
  %4 = tail call i32 @EC_POINT_is_at_infinity(ptr noundef %0, ptr noundef %1) #4
  %.not = icmp eq i32 %4, 0
  br i1 %.not, label %5, label %14

5:                                                ; preds = %3
  %6 = getelementptr inbounds nuw i8, ptr %1, i64 24
  %7 = load ptr, ptr %6, align 8, !tbaa !26
  %8 = tail call i32 @BN_is_zero(ptr noundef %7) #4
  %.not6 = icmp eq i32 %8, 0
  br i1 %.not6, label %9, label %14

9:                                                ; preds = %5
  %10 = load ptr, ptr %6, align 8, !tbaa !26
  %11 = getelementptr inbounds nuw i8, ptr %0, i64 64
  %12 = load ptr, ptr %11, align 8, !tbaa !3
  %13 = tail call i32 @BN_usub(ptr noundef %10, ptr noundef %12, ptr noundef %10) #4
  br label %14

14:                                               ; preds = %3, %5, %9
  %.0 = phi i32 [ %13, %9 ], [ 1, %5 ], [ 1, %3 ]
  ret i32 %.0
}